; Function Attrs: mustprogress nounwind uwtable
define dso_local noundef zeroext i1 @_ZN5clang5arcmt12FileRemapper12initFromDiskEN4llvm9StringRefERNS_17DiagnosticsEngineEb(ptr noundef nonnull align 8 dereferenceable(56) %0, ptr %1, i64 %2, ptr noundef nonnull align 8 dereferenceable(1304) %3, i1 noundef zeroext %4) local_unnamed_addr #0 align 2 {
  %6 = alloca %"class.std::__cxx11::basic_string", align 8
  call void @_ZN5clang5arcmt12FileRemapper16getRemapInfoFileB5cxx11EN4llvm9StringRefE(ptr dead_on_unwind nonnull writable sret(%"class.std::__cxx11::basic_string") align 8 %6, ptr nonnull align 8 poison, ptr %1, i64 %2)
  %7 = call noundef ptr @_ZNKSt7__cxx1112basic_stringIcSt11char_traitsIcESaIcEE4dataEv(ptr noundef nonnull align 8 dereferenceable(32) %6) #17
  %8 = call noundef i64 @_ZNKSt7__cxx1112basic_stringIcSt11char_traitsIcESaIcEE6lengthEv(ptr noundef nonnull align 8 dereferenceable(32) %6) #17
  %9 = call noundef zeroext i1 @_ZN5clang5arcmt12FileRemapper12initFromFileEN4llvm9StringRefERNS_17DiagnosticsEngineEb(ptr noundef nonnull align 8 dereferenceable(56) %0, ptr %7, i64 %8, ptr noundef nonnull align 8 dereferenceable(1304) %3, i1 noundef zeroext %4)
  call void @_ZNSt7__cxx1112basic_stringIcSt11char_traitsIcESaIcEED1Ev(ptr noundef nonnull align 8 dereferenceable(32) %6) #17
  ret i1 %9
}